target datalayout = "e-m:e-p270:32:32-p271:32:32-p272:64:64-i64:64-i128:128-f80:128-n8:16:32:64-S128"
target triple = "x86_64-pc-linux-gnu"

@is_acn_or_rdmnet_over_udp.acn_packet_id = internal constant [13 x i8] c"ASC-E1.17\00\00\00\00", align 1

; Function Attrs: null_pointer_is_valid sspstrong uwtable
define internal zeroext i1 @is_acn_or_rdmnet_over_udp(ptr noundef %0, ptr noundef %1) #0 {
  %3 = alloca i1, align 1
  %4 = alloca ptr, align 8
  %5 = alloca ptr, align 8
  %6 = alloca i32, align 4
  %7 = alloca i8, align 1
  %8 = alloca i32, align 4
  store ptr %0, ptr %4, align 8
  store ptr %1, ptr %5, align 8
  call void @llvm.lifetime.start.p0(i64 4, ptr %6) #7
  call void @llvm.lifetime.start.p0(i64 1, ptr %7) #7
  %9 = load ptr, ptr %4, align 8
  %10 = call i32 @tvb_captured_length(ptr noundef %9)
  %11 = zext i32 %10 to i64
  %12 = icmp ult i64 %11, 23
  br i1 %12, label %13, label %14

13:                                               ; preds = %2
  store i1 false, ptr %3, align 1
  store i32 1, ptr %8, align 4
  br label %41

14:                                               ; preds = %2
  %15 = load ptr, ptr %4, align 8
  %16 = call i32 @tvb_memeql(ptr noundef %15, i32 noundef 4, ptr noundef @is_acn_or_rdmnet_over_udp.acn_packet_id, i64 noundef 12)
  %17 = icmp ne i32 %16, 0
  br i1 %17, label %18, label %19

18:                                               ; preds = %14
  store i1 false, ptr %3, align 1
  store i32 1, ptr %8, align 4
  br label %41

19:                                               ; preds = %14
  store i32 16, ptr %6, align 4
  %20 = load ptr, ptr %4, align 8
  %21 = load i32, ptr %6, align 4
  %22 = call zeroext i8 @tvb_get_uint8(ptr noundef %20, i32 noundef %21)
  %23 = zext i8 %22 to i32
  %24 = and i32 %23, 240
  %25 = trunc i32 %24 to i8
  store i8 %25, ptr %7, align 1
  %26 = load i8, ptr %7, align 1
  %27 = zext i8 %26 to i32
  %28 = and i32 %27, 128
  %29 = icmp ne i32 %28, 0
  br i1 %29, label %30, label %33

30:                                               ; preds = %19
  %31 = load i32, ptr %6, align 4
  %32 = add i32 %31, 3
  store i32 %32, ptr %6, align 4
  br label %36

33:                                               ; preds = %19
  %34 = load i32, ptr %6, align 4
  %35 = add i32 %34, 2
  store i32 %35, ptr %6, align 4
  br label %36

36:                                               ; preds = %33, %30
  %37 = load ptr, ptr %4, align 8
  %38 = load i32, ptr %6, align 4
  %39 = call i32 @tvb_get_ntohl(ptr noundef %37, i32 noundef %38)
  %40 = load ptr, ptr %5, align 8
  store i32 %39, ptr %40, align 4
  store i1 true, ptr %3, align 1
  store i32 1, ptr %8, align 4
  br label %41

41:                                               ; preds = %36, %18, %13
  call void @llvm.lifetime.end.p0(i64 1, ptr %7) #7
  call void @llvm.lifetime.end.p0(i64 4, ptr %6) #7
  %42 = load i1, ptr %3, align 1
  ret i1 %42
}

; Function Attrs: null_pointer_is_valid sspstrong uwtable
define internal zeroext i1 @is_rdmnet_over_udp(ptr noundef %0) #0 {
  %2 = alloca i1, align 1
  %3 = alloca ptr, align 8
  %4 = alloca i32, align 4
  %5 = alloca i32, align 4
  store ptr %0, ptr %3, align 8
  call void @llvm.lifetime.start.p0(i64 4, ptr %4) #7
  %6 = load ptr, ptr %3, align 8
  %7 = call zeroext i1 @is_acn_or_rdmnet_over_udp(ptr noundef %6, ptr noundef %4)
  br i1 %7, label %8, label %12

8:                                                ; preds = %1
  %9 = load i32, ptr %4, align 4
  %10 = icmp eq i32 %9, 10
  br i1 %10, label %11, label %12

11:                                               ; preds = %8
  store i1 true, ptr %2, align 1
  store i32 1, ptr %5, align 4
  br label %13

12:                                               ; preds = %8, %1
  store i1 false, ptr %2, align 1
  store i32 1, ptr %5, align 4
  br label %13

13:                                               ; preds = %12, %11
  call void @llvm.lifetime.end.p0(i64 4, ptr %4) #7
  %14 = load i1, ptr %2, align 1
  ret i1 %14
}

; Function Attrs: null_pointer_is_valid sspstrong uwtable
define internal zeroext i1 @dissect_rdmnet_over_udp_heur(ptr noundef %0, ptr noundef %1, ptr noundef %2, ptr noundef %3) #0 {
  %5 = alloca i1, align 1
  %6 = alloca ptr, align 8
  %7 = alloca ptr, align 8
  %8 = alloca ptr, align 8
  %9 = alloca ptr, align 8
  store ptr %0, ptr %6, align 8
  store ptr %1, ptr %7, align 8
  store ptr %2, ptr %8, align 8
  store ptr %3, ptr %9, align 8
  %10 = load ptr, ptr %6, align 8
  %11 = call zeroext i1 @is_rdmnet_over_udp(ptr noundef %10)
  br i1 %11, label %13, label %12

12:                                               ; preds = %4
  store i1 false, ptr %5, align 1
  br label %18

13:                                               ; preds = %4
  %14 = load ptr, ptr %6, align 8
  %15 = load ptr, ptr %7, align 8
  %16 = load ptr, ptr %8, align 8
  %17 = call i32 @dissect_rdmnet(ptr noundef %14, ptr noundef %15, ptr noundef %16, i32 noundef 0, i1 noundef zeroext true)
  store i1 true, ptr %5, align 1
  br label %18

18:                                               ; preds = %13, %12
  %19 = load i1, ptr %5, align 1
  ret i1 %19
}