; Function Attrs: null_pointer_is_valid sspstrong uwtable
define internal noundef zeroext i1 @dissect_rdmnet_over_udp_heur(ptr noundef %0, ptr noundef %1, ptr noundef %2, ptr readnone captures(none) %3) #0 {
  %5 = tail call i32 @tvb_captured_length(ptr noundef %0)
  %6 = icmp ult i32 %5, 23
  br i1 %6, label %is_rdmnet_over_udp.exit.thread, label %7

7:                                                ; preds = %4
  %8 = tail call i32 @tvb_memeql(ptr noundef %0, i32 noundef 4, ptr noundef nonnull @is_acn_or_rdmnet_over_udp.acn_packet_id, i64 noundef 12)
  %.not.i.i = icmp eq i32 %8, 0
  br i1 %.not.i.i, label %is_rdmnet_over_udp.exit, label %is_rdmnet_over_udp.exit.thread

is_rdmnet_over_udp.exit:                          ; preds = %7
  %9 = tail call zeroext i8 @tvb_get_uint8(ptr noundef %0, i32 noundef 16)
  %.not11.i.i = icmp sgt i8 %9, -1
  %..i.i = select i1 %.not11.i.i, i32 18, i32 19
  %10 = tail call i32 @tvb_get_ntohl(ptr noundef %0, i32 noundef %..i.i)
  %11 = icmp eq i32 %10, 10
  br i1 %11, label %12, label %is_rdmnet_over_udp.exit.thread

12:                                               ; preds = %is_rdmnet_over_udp.exit
  tail call fastcc void @dissect_rdmnet(ptr noundef %0, ptr noundef %1, ptr noundef %2, i1 noundef zeroext true)
  br label %is_rdmnet_over_udp.exit.thread

is_rdmnet_over_udp.exit.thread:                   ; preds = %7, %4, %is_rdmnet_over_udp.exit, %12
  %.0.i.i6 = phi i1 [ false, %is_rdmnet_over_udp.exit ], [ true, %12 ], [ false, %4 ], [ false, %7 ]
  ret i1 %.0.i.i6
}